target datalayout = "e-m:e-p270:32:32-p271:32:32-p272:64:64-i64:64-i128:128-f80:128-n8:16:32:64-S128"
target triple = "x86_64-pc-linux-gnu"

%struct.job_container_ops = type { ptr, ptr, ptr, ptr, ptr, ptr, ptr }

@g_container_context_num = internal global i32 -1, align 4
@ops = internal global ptr null, align 8

; Function Attrs: nounwind uwtable
define dso_local i32 @container_g_restore(ptr noundef %0, i1 noundef zeroext %1) #0 {
  %3 = alloca ptr, align 8
  %4 = alloca i8, align 1
  %5 = alloca i32, align 4
  %6 = alloca i32, align 4
  store ptr %0, ptr %3, align 8
  %7 = zext i1 %1 to i8
  store i8 %7, ptr %4, align 1
  call void @llvm.lifetime.start.p0(i64 4, ptr %5) #6
  call void @llvm.lifetime.start.p0(i64 4, ptr %6) #6
  store i32 0, ptr %6, align 4
  store i32 0, ptr %5, align 4
  br label %8

8:                                                ; preds = %28, %2
  %9 = load i32, ptr %5, align 4
  %10 = load i32, ptr @g_container_context_num, align 4
  %11 = icmp slt i32 %9, %10
  br i1 %11, label %12, label %15

12:                                               ; preds = %8
  %13 = load i32, ptr %6, align 4
  %14 = icmp eq i32 %13, 0
  br label %15

15:                                               ; preds = %12, %8
  %16 = phi i1 [ false, %8 ], [ %14, %12 ]
  br i1 %16, label %17, label %31

17:                                               ; preds = %15
  %18 = load ptr, ptr @ops, align 8
  %19 = load i32, ptr %5, align 4
  %20 = sext i32 %19 to i64
  %21 = getelementptr inbounds %struct.job_container_ops, ptr %18, i64 %20
  %22 = getelementptr inbounds nuw %struct.job_container_ops, ptr %21, i32 0, i32 2
  %23 = load ptr, ptr %22, align 8
  %24 = load ptr, ptr %3, align 8
  %25 = load i8, ptr %4, align 1, !range !12, !noundef !13
  %26 = trunc i8 %25 to i1
  %27 = call i32 %23(ptr noundef %24, i1 noundef zeroext %26)
  store i32 %27, ptr %6, align 4
  br label %28

28:                                               ; preds = %17
  %29 = load i32, ptr %5, align 4
  %30 = add nsw i32 %29, 1
  store i32 %30, ptr %5, align 4
  br label %8, !llvm.loop !16

31:                                               ; preds = %15
  %32 = load i32, ptr %6, align 4
  call void @llvm.lifetime.end.p0(i64 4, ptr %6) #6
  call void @llvm.lifetime.end.p0(i64 4, ptr %5) #6
  ret i32 %32
}